target datalayout = "e-m:e-p270:32:32-p271:32:32-p272:64:64-i64:64-i128:128-f80:128-n8:16:32:64-S128"
target triple = "x86_64-pc-linux-gnu"

%struct.H5HF_hdr_t = type { %struct.H5C_cache_entry_t, i32, i32, i8, i8, i8, i8, %struct.H5HF_dtable_t, i64, i64, i32, i64, i64, %struct.H5O_pline_t, i64, i32, i64, i64, i64, i64, i64, i64, i64, i64, i64, i64, i64, i32, ptr, i64, i8, i8, i8, ptr, i32, ptr, %struct.H5HF_block_iter_t, ptr, i64, i8, i8, i64, i8, i8, i8, i8 }
%struct.H5C_cache_entry_t = type { ptr, i64, i64, ptr, i8, ptr, i8, i8, i8, i8, i32, i8, i8, i8, i8, i8, i32, ptr, i32, i32, i32, i32, i32, i8, i8, ptr, ptr, ptr, ptr, ptr, ptr, i8, i32, i8, i64, ptr, i64, i64, i32, i8, i32, i32, i8, ptr, ptr, ptr }
%struct.H5HF_dtable_t = type { %struct.H5HF_dtable_cparam_t, i64, i32, i32, i32, i32, i32, i32, i32, i64, ptr, ptr, ptr, ptr }
%struct.H5HF_dtable_cparam_t = type { i32, i64, i64, i32, i32 }
%struct.H5O_pline_t = type { %struct.H5O_shared_t, i32, i64, i64, ptr }
%struct.H5O_shared_t = type { i32, ptr, i32, %union.anon }
%union.anon = type { %struct.H5O_mesg_loc_t }
%struct.H5O_mesg_loc_t = type { i32, i64 }
%struct.H5HF_block_iter_t = type { i8, ptr }

@.str = private unnamed_addr constant [103 x i8] c"generated/home/dtcxzyw/WorkSpace/Projects/compilers/llvm-opt-benchmark/bench/hdf5/hdf5/src/H5HFspace.c\00", align 1
@H5E_HEAP_g = external global i64, align 8
@__func__.H5HF__space_close = private unnamed_addr constant [18 x i8] c"H5HF__space_close\00", align 1
@H5E_CANTCOUNT_g = external global i64, align 8
@.str.9 = private unnamed_addr constant [37 x i8] c"can't query free space section count\00", align 1
@H5E_CANTRELEASE_g = external global i64, align 8
@.str.10 = private unnamed_addr constant [30 x i8] c"can't release free space info\00", align 1
@H5E_CANTDELETE_g = external global i64, align 8
@.str.11 = private unnamed_addr constant [29 x i8] c"can't delete free space info\00", align 1

; Function Attrs: nounwind uwtable
define i32 @H5HF__space_close(ptr noundef %0) #0 {
  %2 = alloca ptr, align 8
  %3 = alloca i32, align 4
  %4 = alloca i8, align 1
  %5 = alloca i64, align 8
  store ptr %0, ptr %2, align 8
  store i32 0, ptr %3, align 4
  store i8 0, ptr %4, align 1
  %6 = load ptr, ptr %2, align 8
  %7 = getelementptr inbounds %struct.H5HF_hdr_t, ptr %6, i32 0, i32 35
  %8 = load ptr, ptr %7, align 8
  %9 = icmp ne ptr %8, null
  br i1 %9, label %10, label %88

10:                                               ; preds = %1
  %11 = load ptr, ptr %2, align 8
  %12 = getelementptr inbounds %struct.H5HF_hdr_t, ptr %11, i32 0, i32 35
  %13 = load ptr, ptr %12, align 8
  %14 = call i32 @H5FS_sect_stats(ptr noundef %13, ptr noundef null, ptr noundef %5)
  %15 = icmp slt i32 %14, 0
  br i1 %15, label %16, label %31

16:                                               ; preds = %10
  br label %17

17:                                               ; preds = %16
  br label %18

18:                                               ; preds = %17
  br label %19

19:                                               ; preds = %18
  %20 = load i64, ptr @H5E_HEAP_g, align 8
  %21 = load i64, ptr @H5E_CANTCOUNT_g, align 8
  %22 = call i32 (ptr, ptr, i32, i64, i64, ptr, ...) @H5E_printf_stack(ptr noundef @.str, ptr noundef @__func__.H5HF__space_close, i32 noundef 473, i64 noundef %20, i64 noundef %21, ptr noundef @.str.9)
  br label %23

23:                                               ; preds = %19
  store i8 1, ptr %4, align 1
  %24 = load i8, ptr %4, align 1
  %25 = trunc i8 %24 to i1
  %26 = zext i1 %25 to i8
  store i8 %26, ptr %4, align 1
  br label %27

27:                                               ; preds = %23
  br label %28

28:                                               ; preds = %27
  store i32 -1, ptr %3, align 4
  br label %89

29:                                               ; No predecessors!
  br label %30

30:                                               ; preds = %29
  br label %31

31:                                               ; preds = %30, %10
  %32 = load ptr, ptr %2, align 8
  %33 = getelementptr inbounds %struct.H5HF_hdr_t, ptr %32, i32 0, i32 28
  %34 = load ptr, ptr %33, align 8
  %35 = load ptr, ptr %2, align 8
  %36 = getelementptr inbounds %struct.H5HF_hdr_t, ptr %35, i32 0, i32 35
  %37 = load ptr, ptr %36, align 8
  %38 = call i32 @H5FS_close(ptr noundef %34, ptr noundef %37)
  %39 = icmp slt i32 %38, 0
  br i1 %39, label %40, label %55

40:                                               ; preds = %31
  br label %41

41:                                               ; preds = %40
  br label %42

42:                                               ; preds = %41
  br label %43

43:                                               ; preds = %42
  %44 = load i64, ptr @H5E_HEAP_g, align 8
  %45 = load i64, ptr @H5E_CANTRELEASE_g, align 8
  %46 = call i32 (ptr, ptr, i32, i64, i64, ptr, ...) @H5E_printf_stack(ptr noundef @.str, ptr noundef @__func__.H5HF__space_close, i32 noundef 477, i64 noundef %44, i64 noundef %45, ptr noundef @.str.10)
  br label %47

47:                                               ; preds = %43
  store i8 1, ptr %4, align 1
  %48 = load i8, ptr %4, align 1
  %49 = trunc i8 %48 to i1
  %50 = zext i1 %49 to i8
  store i8 %50, ptr %4, align 1
  br label %51

51:                                               ; preds = %47
  br label %52

52:                                               ; preds = %51
  store i32 -1, ptr %3, align 4
  br label %89

53:                                               ; No predecessors!
  br label %54

54:                                               ; preds = %53
  br label %55

55:                                               ; preds = %54, %31
  %56 = load ptr, ptr %2, align 8
  %57 = getelementptr inbounds %struct.H5HF_hdr_t, ptr %56, i32 0, i32 35
  store ptr null, ptr %57, align 8
  %58 = load i64, ptr %5, align 8
  %59 = icmp ne i64 %58, 0
  br i1 %59, label %87, label %60

60:                                               ; preds = %55
  %61 = load ptr, ptr %2, align 8
  %62 = getelementptr inbounds %struct.H5HF_hdr_t, ptr %61, i32 0, i32 28
  %63 = load ptr, ptr %62, align 8
  %64 = load ptr, ptr %2, align 8
  %65 = getelementptr inbounds %struct.H5HF_hdr_t, ptr %64, i32 0, i32 9
  %66 = load i64, ptr %65, align 8
  %67 = call i32 @H5FS_delete(ptr noundef %63, i64 noundef %66)
  %68 = icmp slt i32 %67, 0
  br i1 %68, label %69, label %84

69:                                               ; preds = %60
  br label %70

70:                                               ; preds = %69
  br label %71

71:                                               ; preds = %70
  br label %72

72:                                               ; preds = %71
  %73 = load i64, ptr @H5E_HEAP_g, align 8
  %74 = load i64, ptr @H5E_CANTDELETE_g, align 8
  %75 = call i32 (ptr, ptr, i32, i64, i64, ptr, ...) @H5E_printf_stack(ptr noundef @.str, ptr noundef @__func__.H5HF__space_close, i32 noundef 483, i64 noundef %73, i64 noundef %74, ptr noundef @.str.11)
  br label %76

76:                                               ; preds = %72
  store i8 1, ptr %4, align 1
  %77 = load i8, ptr %4, align 1
  %78 = trunc i8 %77 to i1
  %79 = zext i1 %78 to i8
  store i8 %79, ptr %4, align 1
  br label %80

80:                                               ; preds = %76
  br label %81

81:                                               ; preds = %80
  store i32 -1, ptr %3, align 4
  br label %89

82:                                               ; No predecessors!
  br label %83

83:                                               ; preds = %82
  br label %84

84:                                               ; preds = %83, %60
  %85 = load ptr, ptr %2, align 8
  %86 = getelementptr inbounds %struct.H5HF_hdr_t, ptr %85, i32 0, i32 9
  store i64 -1, ptr %86, align 8
  br label %87

87:                                               ; preds = %84, %55
  br label %88

88:                                               ; preds = %87, %1
  br label %89

89:                                               ; preds = %88, %81, %52, %28
  %90 = load i32, ptr %3, align 4
  ret i32 %90
}