; Function Attrs: nounwind uwtable
define range(i32 -1, 1) i32 @H5HF__space_close(ptr nocapture noundef %0) local_unnamed_addr #0 {
  %2 = alloca i64, align 8
  %3 = getelementptr inbounds i8, ptr %0, i64 640
  %4 = load ptr, ptr %3, align 8
  %.not = icmp eq ptr %4, null
  br i1 %.not, label %35, label %5

5:                                                ; preds = %1
  %6 = call i32 @H5FS_sect_stats(ptr noundef nonnull %4, ptr noundef null, ptr noundef nonnull %2) #4
  %7 = icmp slt i32 %6, 0
  br i1 %7, label %8, label %12

8:                                                ; preds = %5
  %9 = load i64, ptr @H5E_HEAP_g, align 8
  %10 = load i64, ptr @H5E_CANTCOUNT_g, align 8
  %11 = call i32 (ptr, ptr, i32, i64, i64, ptr, ...) @H5E_printf_stack(ptr noundef nonnull @.str, ptr noundef nonnull @__func__.H5HF__space_close, i32 noundef 473, i64 noundef %9, i64 noundef %10, ptr noundef nonnull @.str.9) #4
  br label %35

12:                                               ; preds = %5
  %13 = getelementptr inbounds i8, ptr %0, i64 600
  %14 = load ptr, ptr %13, align 8
  %15 = load ptr, ptr %3, align 8
  %16 = call i32 @H5FS_close(ptr noundef %14, ptr noundef %15) #4
  %17 = icmp slt i32 %16, 0
  br i1 %17, label %18, label %22

18:                                               ; preds = %12
  %19 = load i64, ptr @H5E_HEAP_g, align 8
  %20 = load i64, ptr @H5E_CANTRELEASE_g, align 8
  %21 = call i32 (ptr, ptr, i32, i64, i64, ptr, ...) @H5E_printf_stack(ptr noundef nonnull @.str, ptr noundef nonnull @__func__.H5HF__space_close, i32 noundef 477, i64 noundef %19, i64 noundef %20, ptr noundef nonnull @.str.10) #4
  br label %35

22:                                               ; preds = %12
  store ptr null, ptr %3, align 8
  %23 = load i64, ptr %2, align 8
  %.not12 = icmp eq i64 %23, 0
  br i1 %.not12, label %24, label %35

24:                                               ; preds = %22
  %25 = load ptr, ptr %13, align 8
  %26 = getelementptr inbounds i8, ptr %0, i64 384
  %27 = load i64, ptr %26, align 8
  %28 = call i32 @H5FS_delete(ptr noundef %25, i64 noundef %27) #4
  %29 = icmp slt i32 %28, 0
  br i1 %29, label %30, label %34

30:                                               ; preds = %24
  %31 = load i64, ptr @H5E_HEAP_g, align 8
  %32 = load i64, ptr @H5E_CANTDELETE_g, align 8
  %33 = call i32 (ptr, ptr, i32, i64, i64, ptr, ...) @H5E_printf_stack(ptr noundef nonnull @.str, ptr noundef nonnull @__func__.H5HF__space_close, i32 noundef 483, i64 noundef %31, i64 noundef %32, ptr noundef nonnull @.str.11) #4
  br label %35

34:                                               ; preds = %24
  store i64 -1, ptr %26, align 8
  br label %35

35:                                               ; preds = %1, %34, %22, %30, %18, %8
  %.0 = phi i32 [ -1, %8 ], [ -1, %18 ], [ 0, %22 ], [ -1, %30 ], [ 0, %34 ], [ 0, %1 ]
  ret i32 %.0
}